; ModuleID = '15/562.c'
source_filename = "15/562.c"
target datalayout = "e-m:e-p270:32:32-p271:32:32-p272:64:64-i64:64-f80:128-n8:16:32:64-S128"
target triple = "x86_64-pc-linux-gnu"

@.str = private unnamed_addr constant [3 x i8] c"%d\00", align 1
@.str.1 = private unnamed_addr constant [4 x i8] c"%d\0A\00", align 1

; Function Attrs: noinline nounwind uwtable
define dso_local i32 @main() #0 {
  %1 = alloca i32, align 4
  %2 = alloca [1000 x [1000 x i32]], align 16
  %3 = alloca i32, align 4
  %4 = alloca i32, align 4
  %5 = alloca i32, align 4
  %6 = alloca i32, align 4
  %7 = alloca i32, align 4
  %8 = alloca i32, align 4
  %9 = alloca i32, align 4
  %10 = alloca i32, align 4
  %11 = alloca i32, align 4
  %12 = alloca i32, align 4
  store i32 0, i32* %1, align 4
  store i32 0, i32* %6, align 4
  store i32 0, i32* %7, align 4
  store i32 0, i32* %8, align 4
  store i32 0, i32* %9, align 4
  %13 = call i32 (i8*, ...) @__isoc99_scanf(i8* getelementptr inbounds ([3 x i8], [3 x i8]* @.str, i64 0, i64 0), i32* %3)
  store i32 0, i32* %4, align 4
  br label %14

14:                                               ; preds = %35, %0
  %15 = load i32, i32* %4, align 4
  %16 = load i32, i32* %3, align 4
  %17 = icmp slt i32 %15, %16
  br i1 %17, label %18, label %38

18:                                               ; preds = %14
  store i32 0, i32* %5, align 4
  br label %19

19:                                               ; preds = %31, %18
  %20 = load i32, i32* %5, align 4
  %21 = load i32, i32* %3, align 4
  %22 = icmp slt i32 %20, %21
  br i1 %22, label %23, label %34

23:                                               ; preds = %19
  %24 = load i32, i32* %4, align 4
  %25 = sext i32 %24 to i64
  %26 = getelementptr inbounds [1000 x [1000 x i32]], [1000 x [1000 x i32]]* %2, i64 0, i64 %25
  %27 = load i32, i32* %5, align 4
  %28 = sext i32 %27 to i64
  %29 = getelementptr inbounds [1000 x i32], [1000 x i32]* %26, i64 0, i64 %28
  %30 = call i32 (i8*, ...) @__isoc99_scanf(i8* getelementptr inbounds ([3 x i8], [3 x i8]* @.str, i64 0, i64 0), i32* %29)
  br label %31

31:                                               ; preds = %23
  %32 = load i32, i32* %5, align 4
  %33 = add nsw i32 %32, 1
  store i32 %33, i32* %5, align 4
  br label %19

34:                                               ; preds = %19
  br label %35

35:                                               ; preds = %34
  %36 = load i32, i32* %4, align 4
  %37 = add nsw i32 %36, 1
  store i32 %37, i32* %4, align 4
  br label %14

38:                                               ; preds = %14
  store i32 0, i32* %4, align 4
  br label %39

39:                                               ; preds = %75, %38
  %40 = load i32, i32* %4, align 4
  %41 = load i32, i32* %3, align 4
  %42 = icmp slt i32 %40, %41
  br i1 %42, label %43, label %78

43:                                               ; preds = %39
  store i32 0, i32* %5, align 4
  br label %44

44:                                               ; preds = %61, %43
  %45 = load i32, i32* %5, align 4
  %46 = load i32, i32* %3, align 4
  %47 = icmp slt i32 %45, %46
  br i1 %47, label %48, label %64

48:                                               ; preds = %44
  %49 = load i32, i32* %4, align 4
  %50 = sext i32 %49 to i64
  %51 = getelementptr inbounds [1000 x [1000 x i32]], [1000 x [1000 x i32]]* %2, i64 0, i64 %50
  %52 = load i32, i32* %5, align 4
  %53 = sext i32 %52 to i64
  %54 = getelementptr inbounds [1000 x i32], [1000 x i32]* %51, i64 0, i64 %53
  %55 = load i32, i32* %54, align 4
  %56 = icmp eq i32 %55, 0
  br i1 %56, label %57, label %60

57:                                               ; preds = %48
  %58 = load i32, i32* %4, align 4
  store i32 %58, i32* %6, align 4
  %59 = load i32, i32* %5, align 4
  store i32 %59, i32* %7, align 4
  br label %64

60:                                               ; preds = %48
  br label %61

61:                                               ; preds = %60
  %62 = load i32, i32* %5, align 4
  %63 = add nsw i32 %62, 1
  store i32 %63, i32* %5, align 4
  br label %44

64:                                               ; preds = %57, %44
  %65 = load i32, i32* %6, align 4
  %66 = sext i32 %65 to i64
  %67 = getelementptr inbounds [1000 x [1000 x i32]], [1000 x [1000 x i32]]* %2, i64 0, i64 %66
  %68 = load i32, i32* %7, align 4
  %69 = sext i32 %68 to i64
  %70 = getelementptr inbounds [1000 x i32], [1000 x i32]* %67, i64 0, i64 %69
  %71 = load i32, i32* %70, align 4
  %72 = icmp eq i32 %71, 0
  br i1 %72, label %73, label %74

73:                                               ; preds = %64
  br label %78

74:                                               ; preds = %64
  br label %75

75:                                               ; preds = %74
  %76 = load i32, i32* %4, align 4
  %77 = add nsw i32 %76, 1
  store i32 %77, i32* %4, align 4
  br label %39

78:                                               ; preds = %73, %39
  %79 = load i32, i32* %3, align 4
  %80 = sub nsw i32 %79, 1
  store i32 %80, i32* %4, align 4
  br label %81

81:                                               ; preds = %117, %78
  %82 = load i32, i32* %4, align 4
  %83 = icmp sge i32 %82, 0
  br i1 %83, label %84, label %120

84:                                               ; preds = %81
  %85 = load i32, i32* %3, align 4
  %86 = sub nsw i32 %85, 1
  store i32 %86, i32* %5, align 4
  br label %87

87:                                               ; preds = %103, %84
  %88 = load i32, i32* %5, align 4
  %89 = icmp sge i32 %88, 0
  br i1 %89, label %90, label %106

90:                                               ; preds = %87
  %91 = load i32, i32* %4, align 4
  %92 = sext i32 %91 to i64
  %93 = getelementptr inbounds [1000 x [1000 x i32]], [1000 x [1000 x i32]]* %2, i64 0, i64 %92
  %94 = load i32, i32* %5, align 4
  %95 = sext i32 %94 to i64
  %96 = getelementptr inbounds [1000 x i32], [1000 x i32]* %93, i64 0, i64 %95
  %97 = load i32, i32* %96, align 4
  %98 = icmp eq i32 %97, 0
  br i1 %98, label %99, label %102

99:                                               ; preds = %90
  %100 = load i32, i32* %4, align 4
  store i32 %100, i32* %8, align 4
  %101 = load i32, i32* %5, align 4
  store i32 %101, i32* %9, align 4
  br label %106

102:                                              ; preds = %90
  br label %103

103:                                              ; preds = %102
  %104 = load i32, i32* %5, align 4
  %105 = add nsw i32 %104, -1
  store i32 %105, i32* %5, align 4
  br label %87

106:                                              ; preds = %99, %87
  %107 = load i32, i32* %8, align 4
  %108 = sext i32 %107 to i64
  %109 = getelementptr inbounds [1000 x [1000 x i32]], [1000 x [1000 x i32]]* %2, i64 0, i64 %108
  %110 = load i32, i32* %9, align 4
  %111 = sext i32 %110 to i64
  %112 = getelementptr inbounds [1000 x i32], [1000 x i32]* %109, i64 0, i64 %111
  %113 = load i32, i32* %112, align 4
  %114 = icmp eq i32 %113, 0
  br i1 %114, label %115, label %116

115:                                              ; preds = %106
  br label %120

116:                                              ; preds = %106
  br label %117

117:                                              ; preds = %116
  %118 = load i32, i32* %4, align 4
  %119 = add nsw i32 %118, -1
  store i32 %119, i32* %4, align 4
  br label %81

120:                                              ; preds = %115, %81
  %121 = load i32, i32* %8, align 4
  %122 = load i32, i32* %6, align 4
  %123 = sub nsw i32 %121, %122
  %124 = sub nsw i32 %123, 1
  store i32 %124, i32* %11, align 4
  %125 = load i32, i32* %9, align 4
  %126 = load i32, i32* %7, align 4
  %127 = sub nsw i32 %125, %126
  %128 = sub nsw i32 %127, 1
  store i32 %128, i32* %12, align 4
  %129 = load i32, i32* %11, align 4
  %130 = load i32, i32* %12, align 4
  %131 = mul nsw i32 %129, %130
  store i32 %131, i32* %10, align 4
  %132 = load i32, i32* %10, align 4
  %133 = call i32 (i8*, ...) @printf(i8* getelementptr inbounds ([4 x i8], [4 x i8]* @.str.1, i64 0, i64 0), i32 %132)
  ret i32 0
}

declare dso_local i32 @__isoc99_scanf(i8*, ...) #1

declare dso_local i32 @printf(i8*, ...) #1


!llvm.module.flags = !{!0}
!llvm.ident = !{!1}

!0 = !{i32 1, !"wchar_size", i32 4}
!1 = !{!"clang version 10.0.0-4ubuntu1 "}
